target datalayout = "e-m:e-p270:32:32-p271:32:32-p272:64:64-i64:64-i128:128-f80:128-n8:16:32:64-S128"
target triple = "x86_64-pc-linux-gnu"

%struct.t_blocka = type { i32, ptr, i32, ptr, i32, i32 }
%struct.gmx_ana_indexmap_t = type { i32, ptr, ptr, %struct.t_blocka, ptr, %struct.t_blocka, i8 }

@.str.3 = private unnamed_addr constant [129 x i8] c"generated/home/dtcxzyw/WorkSpace/Projects/compilers/llvm-opt-benchmark/bench/gromacs/gromacs/src/gromacs/selection/indexutil.cpp\00", align 1
@.str.37 = private unnamed_addr constant [13 x i8] c"dest->mapb.a\00", align 1

; Function Attrs: inlinehint mustprogress uwtable
define internal void @_ZL13gmx_snew_implIiEvPKcS1_iRPT_m(ptr noundef %0, ptr noundef %1, i32 noundef %2, ptr noundef nonnull align 8 dereferenceable(8) %3, i64 noundef %4) #5 {
  %6 = alloca ptr, align 8
  %7 = alloca ptr, align 8
  %8 = alloca i32, align 4
  %9 = alloca ptr, align 8
  %10 = alloca i64, align 8
  store ptr %0, ptr %6, align 8, !tbaa !54
  store ptr %1, ptr %7, align 8, !tbaa !54
  store i32 %2, ptr %8, align 4, !tbaa !114
  store ptr %3, ptr %9, align 8, !tbaa !84
  store i64 %4, ptr %10, align 8, !tbaa !19
  %11 = load ptr, ptr %6, align 8, !tbaa !54
  %12 = load ptr, ptr %7, align 8, !tbaa !54
  %13 = load i32, ptr %8, align 4, !tbaa !114
  %14 = load i64, ptr %10, align 8, !tbaa !19
  %15 = call noundef ptr @_Z11save_callocPKcS0_imm(ptr noundef %11, ptr noundef %12, i32 noundef %13, i64 noundef %14, i64 noundef 4)
  %16 = load ptr, ptr %9, align 8, !tbaa !84
  store ptr %15, ptr %16, align 8, !tbaa !77
  ret void
}

; Function Attrs: mustprogress uwtable
define void @_Z21gmx_ana_indexmap_copyP18gmx_ana_indexmap_tS0_b(ptr noundef %0, ptr noundef %1, i1 noundef zeroext %2) #0 {
  %4 = alloca ptr, align 8
  %5 = alloca ptr, align 8
  %6 = alloca i8, align 1
  store ptr %0, ptr %4, align 8, !tbaa !476
  store ptr %1, ptr %5, align 8, !tbaa !476
  %7 = zext i1 %2 to i8
  store i8 %7, ptr %6, align 1, !tbaa !36
  %8 = load i8, ptr %6, align 1, !tbaa !36, !range !298, !noundef !299
  %9 = trunc i8 %8 to i1
  br i1 %9, label %10, label %87

10:                                               ; preds = %3
  %11 = load ptr, ptr %4, align 8, !tbaa !476
  %12 = load ptr, ptr %5, align 8, !tbaa !476
  %13 = getelementptr inbounds nuw %struct.gmx_ana_indexmap_t, ptr %12, i32 0, i32 5
  %14 = getelementptr inbounds nuw %struct.t_blocka, ptr %13, i32 0, i32 0
  %15 = load i32, ptr %14, align 8, !tbaa !489
  %16 = load ptr, ptr %5, align 8, !tbaa !476
  %17 = getelementptr inbounds nuw %struct.gmx_ana_indexmap_t, ptr %16, i32 0, i32 5
  %18 = getelementptr inbounds nuw %struct.t_blocka, ptr %17, i32 0, i32 2
  %19 = load i32, ptr %18, align 8, !tbaa !491
  call void @_Z24gmx_ana_indexmap_reserveP18gmx_ana_indexmap_tii(ptr noundef %11, i32 noundef %15, i32 noundef %19)
  %20 = load ptr, ptr %5, align 8, !tbaa !476
  %21 = getelementptr inbounds nuw %struct.gmx_ana_indexmap_t, ptr %20, i32 0, i32 0
  %22 = load i32, ptr %21, align 8, !tbaa !478
  %23 = load ptr, ptr %4, align 8, !tbaa !476
  %24 = getelementptr inbounds nuw %struct.gmx_ana_indexmap_t, ptr %23, i32 0, i32 0
  store i32 %22, ptr %24, align 8, !tbaa !478
  %25 = load ptr, ptr %5, align 8, !tbaa !476
  %26 = getelementptr inbounds nuw %struct.gmx_ana_indexmap_t, ptr %25, i32 0, i32 5
  %27 = getelementptr inbounds nuw %struct.t_blocka, ptr %26, i32 0, i32 0
  %28 = load i32, ptr %27, align 8, !tbaa !489
  %29 = load ptr, ptr %4, align 8, !tbaa !476
  %30 = getelementptr inbounds nuw %struct.gmx_ana_indexmap_t, ptr %29, i32 0, i32 5
  %31 = getelementptr inbounds nuw %struct.t_blocka, ptr %30, i32 0, i32 0
  store i32 %28, ptr %31, align 8, !tbaa !489
  %32 = load ptr, ptr %5, align 8, !tbaa !476
  %33 = getelementptr inbounds nuw %struct.gmx_ana_indexmap_t, ptr %32, i32 0, i32 5
  %34 = getelementptr inbounds nuw %struct.t_blocka, ptr %33, i32 0, i32 2
  %35 = load i32, ptr %34, align 8, !tbaa !491
  %36 = load ptr, ptr %4, align 8, !tbaa !476
  %37 = getelementptr inbounds nuw %struct.gmx_ana_indexmap_t, ptr %36, i32 0, i32 5
  %38 = getelementptr inbounds nuw %struct.t_blocka, ptr %37, i32 0, i32 2
  store i32 %35, ptr %38, align 8, !tbaa !491
  %39 = load ptr, ptr %4, align 8, !tbaa !476
  %40 = getelementptr inbounds nuw %struct.gmx_ana_indexmap_t, ptr %39, i32 0, i32 4
  %41 = load ptr, ptr %40, align 8, !tbaa !488
  %42 = load ptr, ptr %5, align 8, !tbaa !476
  %43 = getelementptr inbounds nuw %struct.gmx_ana_indexmap_t, ptr %42, i32 0, i32 4
  %44 = load ptr, ptr %43, align 8, !tbaa !488
  %45 = load ptr, ptr %4, align 8, !tbaa !476
  %46 = getelementptr inbounds nuw %struct.gmx_ana_indexmap_t, ptr %45, i32 0, i32 5
  %47 = getelementptr inbounds nuw %struct.t_blocka, ptr %46, i32 0, i32 0
  %48 = load i32, ptr %47, align 8, !tbaa !489
  %49 = sext i32 %48 to i64
  %50 = mul i64 %49, 4
  call void @llvm.memcpy.p0.p0.i64(ptr align 4 %41, ptr align 4 %44, i64 %50, i1 false)
  %51 = load ptr, ptr %4, align 8, !tbaa !476
  %52 = getelementptr inbounds nuw %struct.gmx_ana_indexmap_t, ptr %51, i32 0, i32 5
  %53 = getelementptr inbounds nuw %struct.t_blocka, ptr %52, i32 0, i32 1
  %54 = load ptr, ptr %53, align 8, !tbaa !490
  %55 = load ptr, ptr %5, align 8, !tbaa !476
  %56 = getelementptr inbounds nuw %struct.gmx_ana_indexmap_t, ptr %55, i32 0, i32 5
  %57 = getelementptr inbounds nuw %struct.t_blocka, ptr %56, i32 0, i32 1
  %58 = load ptr, ptr %57, align 8, !tbaa !490
  %59 = load ptr, ptr %4, align 8, !tbaa !476
  %60 = getelementptr inbounds nuw %struct.gmx_ana_indexmap_t, ptr %59, i32 0, i32 5
  %61 = getelementptr inbounds nuw %struct.t_blocka, ptr %60, i32 0, i32 0
  %62 = load i32, ptr %61, align 8, !tbaa !489
  %63 = add nsw i32 %62, 1
  %64 = sext i32 %63 to i64
  %65 = mul i64 %64, 4
  call void @llvm.memcpy.p0.p0.i64(ptr align 4 %54, ptr align 4 %58, i64 %65, i1 false)
  %66 = load ptr, ptr %4, align 8, !tbaa !476
  %67 = getelementptr inbounds nuw %struct.gmx_ana_indexmap_t, ptr %66, i32 0, i32 5
  %68 = getelementptr inbounds nuw %struct.t_blocka, ptr %67, i32 0, i32 2
  %69 = load i32, ptr %68, align 8, !tbaa !491
  %70 = icmp sgt i32 %69, 0
  br i1 %70, label %71, label %86

71:                                               ; preds = %10
  %72 = load ptr, ptr %4, align 8, !tbaa !476
  %73 = getelementptr inbounds nuw %struct.gmx_ana_indexmap_t, ptr %72, i32 0, i32 5
  %74 = getelementptr inbounds nuw %struct.t_blocka, ptr %73, i32 0, i32 3
  %75 = load ptr, ptr %74, align 8, !tbaa !492
  %76 = load ptr, ptr %5, align 8, !tbaa !476
  %77 = getelementptr inbounds nuw %struct.gmx_ana_indexmap_t, ptr %76, i32 0, i32 5
  %78 = getelementptr inbounds nuw %struct.t_blocka, ptr %77, i32 0, i32 3
  %79 = load ptr, ptr %78, align 8, !tbaa !492
  %80 = load ptr, ptr %4, align 8, !tbaa !476
  %81 = getelementptr inbounds nuw %struct.gmx_ana_indexmap_t, ptr %80, i32 0, i32 5
  %82 = getelementptr inbounds nuw %struct.t_blocka, ptr %81, i32 0, i32 2
  %83 = load i32, ptr %82, align 8, !tbaa !491
  %84 = sext i32 %83 to i64
  %85 = mul i64 %84, 4
  call void @llvm.memcpy.p0.p0.i64(ptr align 4 %75, ptr align 4 %79, i64 %85, i1 false)
  br label %86

86:                                               ; preds = %71, %10
  br label %87

87:                                               ; preds = %86, %3
  %88 = load ptr, ptr %5, align 8, !tbaa !476
  %89 = getelementptr inbounds nuw %struct.gmx_ana_indexmap_t, ptr %88, i32 0, i32 3
  %90 = getelementptr inbounds nuw %struct.t_blocka, ptr %89, i32 0, i32 0
  %91 = load i32, ptr %90, align 8, !tbaa !482
  %92 = load ptr, ptr %4, align 8, !tbaa !476
  %93 = getelementptr inbounds nuw %struct.gmx_ana_indexmap_t, ptr %92, i32 0, i32 3
  %94 = getelementptr inbounds nuw %struct.t_blocka, ptr %93, i32 0, i32 0
  store i32 %91, ptr %94, align 8, !tbaa !482
  %95 = load ptr, ptr %5, align 8, !tbaa !476
  %96 = getelementptr inbounds nuw %struct.gmx_ana_indexmap_t, ptr %95, i32 0, i32 3
  %97 = getelementptr inbounds nuw %struct.t_blocka, ptr %96, i32 0, i32 2
  %98 = load i32, ptr %97, align 8, !tbaa !485
  %99 = load ptr, ptr %4, align 8, !tbaa !476
  %100 = getelementptr inbounds nuw %struct.gmx_ana_indexmap_t, ptr %99, i32 0, i32 3
  %101 = getelementptr inbounds nuw %struct.t_blocka, ptr %100, i32 0, i32 2
  store i32 %98, ptr %101, align 8, !tbaa !485
  %102 = load ptr, ptr %5, align 8, !tbaa !476
  %103 = getelementptr inbounds nuw %struct.gmx_ana_indexmap_t, ptr %102, i32 0, i32 3
  %104 = getelementptr inbounds nuw %struct.t_blocka, ptr %103, i32 0, i32 5
  %105 = load i32, ptr %104, align 4, !tbaa !487
  %106 = icmp sgt i32 %105, 0
  br i1 %106, label %107, label %141

107:                                              ; preds = %87
  %108 = load i8, ptr %6, align 1, !tbaa !36, !range !298, !noundef !299
  %109 = trunc i8 %108 to i1
  br i1 %109, label %110, label %126

110:                                              ; preds = %107
  %111 = load ptr, ptr %4, align 8, !tbaa !476
  %112 = getelementptr inbounds nuw %struct.gmx_ana_indexmap_t, ptr %111, i32 0, i32 3
  %113 = getelementptr inbounds nuw %struct.t_blocka, ptr %112, i32 0, i32 3
  %114 = load ptr, ptr %5, align 8, !tbaa !476
  %115 = getelementptr inbounds nuw %struct.gmx_ana_indexmap_t, ptr %114, i32 0, i32 3
  %116 = getelementptr inbounds nuw %struct.t_blocka, ptr %115, i32 0, i32 5
  %117 = load i32, ptr %116, align 4, !tbaa !487
  %118 = sext i32 %117 to i64
  call void @_ZL13gmx_snew_implIiEvPKcS1_iRPT_m(ptr noundef @.str.37, ptr noundef @.str.3, i32 noundef 1289, ptr noundef nonnull align 8 dereferenceable(8) %113, i64 noundef %118)
  %119 = load ptr, ptr %5, align 8, !tbaa !476
  %120 = getelementptr inbounds nuw %struct.gmx_ana_indexmap_t, ptr %119, i32 0, i32 3
  %121 = getelementptr inbounds nuw %struct.t_blocka, ptr %120, i32 0, i32 5
  %122 = load i32, ptr %121, align 4, !tbaa !487
  %123 = load ptr, ptr %4, align 8, !tbaa !476
  %124 = getelementptr inbounds nuw %struct.gmx_ana_indexmap_t, ptr %123, i32 0, i32 3
  %125 = getelementptr inbounds nuw %struct.t_blocka, ptr %124, i32 0, i32 5
  store i32 %122, ptr %125, align 4, !tbaa !487
  br label %126

126:                                              ; preds = %110, %107
  %127 = load ptr, ptr %4, align 8, !tbaa !476
  %128 = getelementptr inbounds nuw %struct.gmx_ana_indexmap_t, ptr %127, i32 0, i32 3
  %129 = getelementptr inbounds nuw %struct.t_blocka, ptr %128, i32 0, i32 3
  %130 = load ptr, ptr %129, align 8, !tbaa !486
  %131 = load ptr, ptr %5, align 8, !tbaa !476
  %132 = getelementptr inbounds nuw %struct.gmx_ana_indexmap_t, ptr %131, i32 0, i32 3
  %133 = getelementptr inbounds nuw %struct.t_blocka, ptr %132, i32 0, i32 3
  %134 = load ptr, ptr %133, align 8, !tbaa !486
  %135 = load ptr, ptr %4, align 8, !tbaa !476
  %136 = getelementptr inbounds nuw %struct.gmx_ana_indexmap_t, ptr %135, i32 0, i32 3
  %137 = getelementptr inbounds nuw %struct.t_blocka, ptr %136, i32 0, i32 2
  %138 = load i32, ptr %137, align 8, !tbaa !485
  %139 = sext i32 %138 to i64
  %140 = mul i64 %139, 4
  call void @llvm.memcpy.p0.p0.i64(ptr align 4 %130, ptr align 4 %134, i64 %140, i1 false)
  br label %149

141:                                              ; preds = %87
  %142 = load ptr, ptr %5, align 8, !tbaa !476
  %143 = getelementptr inbounds nuw %struct.gmx_ana_indexmap_t, ptr %142, i32 0, i32 3
  %144 = getelementptr inbounds nuw %struct.t_blocka, ptr %143, i32 0, i32 3
  %145 = load ptr, ptr %144, align 8, !tbaa !486
  %146 = load ptr, ptr %4, align 8, !tbaa !476
  %147 = getelementptr inbounds nuw %struct.gmx_ana_indexmap_t, ptr %146, i32 0, i32 3
  %148 = getelementptr inbounds nuw %struct.t_blocka, ptr %147, i32 0, i32 3
  store ptr %145, ptr %148, align 8, !tbaa !486
  br label %149

149:                                              ; preds = %141, %126
  %150 = load ptr, ptr %4, align 8, !tbaa !476
  %151 = getelementptr inbounds nuw %struct.gmx_ana_indexmap_t, ptr %150, i32 0, i32 1
  %152 = load ptr, ptr %151, align 8, !tbaa !480
  %153 = load ptr, ptr %5, align 8, !tbaa !476
  %154 = getelementptr inbounds nuw %struct.gmx_ana_indexmap_t, ptr %153, i32 0, i32 1
  %155 = load ptr, ptr %154, align 8, !tbaa !480
  %156 = load ptr, ptr %4, align 8, !tbaa !476
  %157 = getelementptr inbounds nuw %struct.gmx_ana_indexmap_t, ptr %156, i32 0, i32 3
  %158 = getelementptr inbounds nuw %struct.t_blocka, ptr %157, i32 0, i32 0
  %159 = load i32, ptr %158, align 8, !tbaa !482
  %160 = sext i32 %159 to i64
  %161 = mul i64 %160, 4
  call void @llvm.memcpy.p0.p0.i64(ptr align 4 %152, ptr align 4 %155, i64 %161, i1 false)
  %162 = load ptr, ptr %4, align 8, !tbaa !476
  %163 = getelementptr inbounds nuw %struct.gmx_ana_indexmap_t, ptr %162, i32 0, i32 2
  %164 = load ptr, ptr %163, align 8, !tbaa !481
  %165 = load ptr, ptr %5, align 8, !tbaa !476
  %166 = getelementptr inbounds nuw %struct.gmx_ana_indexmap_t, ptr %165, i32 0, i32 2
  %167 = load ptr, ptr %166, align 8, !tbaa !481
  %168 = load ptr, ptr %4, align 8, !tbaa !476
  %169 = getelementptr inbounds nuw %struct.gmx_ana_indexmap_t, ptr %168, i32 0, i32 3
  %170 = getelementptr inbounds nuw %struct.t_blocka, ptr %169, i32 0, i32 0
  %171 = load i32, ptr %170, align 8, !tbaa !482
  %172 = sext i32 %171 to i64
  %173 = mul i64 %172, 4
  call void @llvm.memcpy.p0.p0.i64(ptr align 4 %164, ptr align 4 %167, i64 %173, i1 false)
  %174 = load ptr, ptr %4, align 8, !tbaa !476
  %175 = getelementptr inbounds nuw %struct.gmx_ana_indexmap_t, ptr %174, i32 0, i32 3
  %176 = getelementptr inbounds nuw %struct.t_blocka, ptr %175, i32 0, i32 1
  %177 = load ptr, ptr %176, align 8, !tbaa !483
  %178 = load ptr, ptr %5, align 8, !tbaa !476
  %179 = getelementptr inbounds nuw %struct.gmx_ana_indexmap_t, ptr %178, i32 0, i32 3
  %180 = getelementptr inbounds nuw %struct.t_blocka, ptr %179, i32 0, i32 1
  %181 = load ptr, ptr %180, align 8, !tbaa !483
  %182 = load ptr, ptr %4, align 8, !tbaa !476
  %183 = getelementptr inbounds nuw %struct.gmx_ana_indexmap_t, ptr %182, i32 0, i32 3
  %184 = getelementptr inbounds nuw %struct.t_blocka, ptr %183, i32 0, i32 0
  %185 = load i32, ptr %184, align 8, !tbaa !482
  %186 = add nsw i32 %185, 1
  %187 = sext i32 %186 to i64
  %188 = mul i64 %187, 4
  call void @llvm.memcpy.p0.p0.i64(ptr align 4 %177, ptr align 4 %181, i64 %188, i1 false)
  %189 = load ptr, ptr %5, align 8, !tbaa !476
  %190 = getelementptr inbounds nuw %struct.gmx_ana_indexmap_t, ptr %189, i32 0, i32 6
  %191 = load i8, ptr %190, align 8, !tbaa !495, !range !298, !noundef !299
  %192 = trunc i8 %191 to i1
  %193 = load ptr, ptr %4, align 8, !tbaa !476
  %194 = getelementptr inbounds nuw %struct.gmx_ana_indexmap_t, ptr %193, i32 0, i32 6
  %195 = zext i1 %192 to i8
  store i8 %195, ptr %194, align 8, !tbaa !495
  ret void
}