; Function Attrs: mustprogress uwtable
define void @_Z21gmx_ana_indexmap_copyP18gmx_ana_indexmap_tS0_b(ptr noundef captures(none) %0, ptr noundef readonly captures(none) %1, i1 noundef zeroext %2) local_unnamed_addr #0 {
  br i1 %2, label %4, label %.thread

4:                                                ; preds = %3
  %5 = getelementptr inbounds nuw i8, ptr %1, i64 72
  %6 = load i32, ptr %5, align 8, !tbaa !259
  %7 = getelementptr inbounds nuw i8, ptr %1, i64 88
  %8 = load i32, ptr %7, align 8, !tbaa !254
  tail call void @_Z24gmx_ana_indexmap_reserveP18gmx_ana_indexmap_tii(ptr noundef %0, i32 noundef %6, i32 noundef %8)
  %9 = load i32, ptr %1, align 8, !tbaa !248
  store i32 %9, ptr %0, align 8, !tbaa !248
  %10 = load i32, ptr %5, align 8, !tbaa !259
  %11 = getelementptr inbounds nuw i8, ptr %0, i64 72
  store i32 %10, ptr %11, align 8, !tbaa !259
  %12 = load i32, ptr %7, align 8, !tbaa !254
  %13 = getelementptr inbounds nuw i8, ptr %0, i64 88
  store i32 %12, ptr %13, align 8, !tbaa !254
  %14 = getelementptr inbounds nuw i8, ptr %0, i64 64
  %15 = load ptr, ptr %14, align 8, !tbaa !262
  %16 = getelementptr inbounds nuw i8, ptr %1, i64 64
  %17 = load ptr, ptr %16, align 8, !tbaa !262
  %18 = sext i32 %10 to i64
  %19 = shl nsw i64 %18, 2
  tail call void @llvm.memcpy.p0.p0.i64(ptr align 4 %15, ptr align 4 %17, i64 %19, i1 false)
  %20 = getelementptr inbounds nuw i8, ptr %0, i64 80
  %21 = load ptr, ptr %20, align 8, !tbaa !253
  %22 = getelementptr inbounds nuw i8, ptr %1, i64 80
  %23 = load ptr, ptr %22, align 8, !tbaa !253
  %24 = load i32, ptr %11, align 8, !tbaa !259
  %25 = add nsw i32 %24, 1
  %26 = sext i32 %25 to i64
  %27 = shl nsw i64 %26, 2
  tail call void @llvm.memcpy.p0.p0.i64(ptr align 4 %21, ptr align 4 %23, i64 %27, i1 false)
  %28 = load i32, ptr %13, align 8, !tbaa !254
  %29 = icmp sgt i32 %28, 0
  br i1 %29, label %30, label %37

30:                                               ; preds = %4
  %31 = getelementptr inbounds nuw i8, ptr %0, i64 96
  %32 = load ptr, ptr %31, align 8, !tbaa !264
  %33 = getelementptr inbounds nuw i8, ptr %1, i64 96
  %34 = load ptr, ptr %33, align 8, !tbaa !264
  %35 = zext nneg i32 %28 to i64
  %36 = shl nuw nsw i64 %35, 2
  tail call void @llvm.memcpy.p0.p0.i64(ptr align 4 %32, ptr align 4 %34, i64 %36, i1 false)
  br label %37

37:                                               ; preds = %4, %30
  %38 = getelementptr inbounds nuw i8, ptr %1, i64 24
  %39 = load i32, ptr %38, align 8, !tbaa !265
  %40 = getelementptr inbounds nuw i8, ptr %0, i64 24
  store i32 %39, ptr %40, align 8, !tbaa !265
  %41 = getelementptr inbounds nuw i8, ptr %1, i64 40
  %42 = load i32, ptr %41, align 8, !tbaa !252
  %43 = getelementptr inbounds nuw i8, ptr %0, i64 40
  store i32 %42, ptr %43, align 8, !tbaa !252
  %44 = getelementptr inbounds nuw i8, ptr %1, i64 60
  %45 = load i32, ptr %44, align 4, !tbaa !270
  %46 = icmp sgt i32 %45, 0
  br i1 %46, label %56, label %69

.thread:                                          ; preds = %3
  %47 = getelementptr inbounds nuw i8, ptr %1, i64 24
  %48 = load i32, ptr %47, align 8, !tbaa !265
  %49 = getelementptr inbounds nuw i8, ptr %0, i64 24
  store i32 %48, ptr %49, align 8, !tbaa !265
  %50 = getelementptr inbounds nuw i8, ptr %1, i64 40
  %51 = load i32, ptr %50, align 8, !tbaa !252
  %52 = getelementptr inbounds nuw i8, ptr %0, i64 40
  store i32 %51, ptr %52, align 8, !tbaa !252
  %53 = getelementptr inbounds nuw i8, ptr %1, i64 60
  %54 = load i32, ptr %53, align 4, !tbaa !270
  %55 = icmp sgt i32 %54, 0
  br i1 %55, label %.thread..thread46_crit_edge, label %69

.thread..thread46_crit_edge:                      ; preds = %.thread
  %.phi.trans.insert = getelementptr inbounds nuw i8, ptr %0, i64 48
  %.pre = load ptr, ptr %.phi.trans.insert, align 8, !tbaa !266
  br label %.thread46

56:                                               ; preds = %37
  %57 = getelementptr inbounds nuw i8, ptr %0, i64 48
  %58 = zext nneg i32 %45 to i64
  %59 = tail call noundef ptr @_Z11save_callocPKcS0_imm(ptr noundef nonnull @.str.37, ptr noundef nonnull @.str.3, i32 noundef 1289, i64 noundef range(i64 -2147483648, 2147483648) %58, i64 noundef 4)
  store ptr %59, ptr %57, align 8, !tbaa !30
  %60 = load i32, ptr %44, align 4, !tbaa !270
  %61 = getelementptr inbounds nuw i8, ptr %0, i64 60
  store i32 %60, ptr %61, align 4, !tbaa !270
  %.pre47 = load i32, ptr %43, align 8, !tbaa !252
  br label %.thread46

.thread46:                                        ; preds = %.thread..thread46_crit_edge, %56
  %62 = phi i32 [ %.pre47, %56 ], [ %51, %.thread..thread46_crit_edge ]
  %63 = phi ptr [ %59, %56 ], [ %.pre, %.thread..thread46_crit_edge ]
  %64 = phi ptr [ %40, %56 ], [ %49, %.thread..thread46_crit_edge ]
  %65 = getelementptr inbounds nuw i8, ptr %1, i64 48
  %66 = load ptr, ptr %65, align 8, !tbaa !266
  %67 = sext i32 %62 to i64
  %68 = shl nsw i64 %67, 2
  tail call void @llvm.memcpy.p0.p0.i64(ptr align 4 %63, ptr align 4 %66, i64 %68, i1 false)
  %.pre48 = load i32, ptr %64, align 8, !tbaa !265
  br label %75

69:                                               ; preds = %.thread, %37
  %70 = phi i32 [ %48, %.thread ], [ %39, %37 ]
  %71 = phi ptr [ %49, %.thread ], [ %40, %37 ]
  %72 = getelementptr inbounds nuw i8, ptr %1, i64 48
  %73 = load ptr, ptr %72, align 8, !tbaa !266
  %74 = getelementptr inbounds nuw i8, ptr %0, i64 48
  store ptr %73, ptr %74, align 8, !tbaa !266
  br label %75

75:                                               ; preds = %69, %.thread46
  %76 = phi i32 [ %70, %69 ], [ %.pre48, %.thread46 ]
  %77 = phi ptr [ %71, %69 ], [ %64, %.thread46 ]
  %78 = getelementptr inbounds nuw i8, ptr %0, i64 8
  %79 = load ptr, ptr %78, align 8, !tbaa !260
  %80 = getelementptr inbounds nuw i8, ptr %1, i64 8
  %81 = load ptr, ptr %80, align 8, !tbaa !260
  %82 = sext i32 %76 to i64
  %83 = shl nsw i64 %82, 2
  tail call void @llvm.memcpy.p0.p0.i64(ptr align 4 %79, ptr align 4 %81, i64 %83, i1 false)
  %84 = getelementptr inbounds nuw i8, ptr %0, i64 16
  %85 = load ptr, ptr %84, align 8, !tbaa !261
  %86 = getelementptr inbounds nuw i8, ptr %1, i64 16
  %87 = load ptr, ptr %86, align 8, !tbaa !261
  %88 = load i32, ptr %77, align 8, !tbaa !265
  %89 = sext i32 %88 to i64
  %90 = shl nsw i64 %89, 2
  tail call void @llvm.memcpy.p0.p0.i64(ptr align 4 %85, ptr align 4 %87, i64 %90, i1 false)
  %91 = getelementptr inbounds nuw i8, ptr %0, i64 32
  %92 = load ptr, ptr %91, align 8, !tbaa !251
  %93 = getelementptr inbounds nuw i8, ptr %1, i64 32
  %94 = load ptr, ptr %93, align 8, !tbaa !251
  %95 = load i32, ptr %77, align 8, !tbaa !265
  %96 = add nsw i32 %95, 1
  %97 = sext i32 %96 to i64
  %98 = shl nsw i64 %97, 2
  tail call void @llvm.memcpy.p0.p0.i64(ptr align 4 %92, ptr align 4 %94, i64 %98, i1 false)
  %99 = getelementptr inbounds nuw i8, ptr %1, i64 112
  %100 = load i8, ptr %99, align 8, !tbaa !255, !range !203, !noundef !204
  %101 = getelementptr inbounds nuw i8, ptr %0, i64 112
  store i8 %100, ptr %101, align 8, !tbaa !255
  ret void
}